target datalayout = "e-m:e-p270:32:32-p271:32:32-p272:64:64-i64:64-i128:128-f80:128-n8:16:32:64-S128"
target triple = "x86_64-pc-linux-gnu"

@.str.16 = private unnamed_addr constant [25 x i8] c"field cannot be negative\00", align 1
@.str.17 = private unnamed_addr constant [23 x i8] c"width must be positive\00", align 1
@.str.18 = private unnamed_addr constant [35 x i8] c"trying to access non-existent bits\00", align 1

; Function Attrs: mustprogress uwtable
define internal noundef i32 @_ZL9fieldargsP9lua_StateiPi(ptr noundef %0, i32 noundef %1, ptr noundef %2) #0 {
  %4 = alloca ptr, align 8
  %5 = alloca i32, align 4
  %6 = alloca ptr, align 8
  %7 = alloca i32, align 4
  %8 = alloca i32, align 4
  store ptr %0, ptr %4, align 8, !tbaa !4
  store i32 %1, ptr %5, align 4, !tbaa !9
  store ptr %2, ptr %6, align 8, !tbaa !17
  call void @llvm.lifetime.start.p0(i64 4, ptr %7) #4
  %9 = load ptr, ptr %4, align 8, !tbaa !4
  %10 = load i32, ptr %5, align 4, !tbaa !9
  %11 = call noundef i32 @_Z17luaL_checkintegerP9lua_Statei(ptr noundef %9, i32 noundef %10)
  store i32 %11, ptr %7, align 4, !tbaa !9
  call void @llvm.lifetime.start.p0(i64 4, ptr %8) #4
  %12 = load ptr, ptr %4, align 8, !tbaa !4
  %13 = load i32, ptr %5, align 4, !tbaa !9
  %14 = add nsw i32 %13, 1
  %15 = call noundef i32 @_Z15luaL_optintegerP9lua_Stateii(ptr noundef %12, i32 noundef %14, i32 noundef 1)
  store i32 %15, ptr %8, align 4, !tbaa !9
  %16 = load i32, ptr %7, align 4, !tbaa !9
  %17 = icmp sle i32 0, %16
  br i1 %17, label %18, label %19

18:                                               ; preds = %3
  br label %23

19:                                               ; preds = %3
  %20 = load ptr, ptr %4, align 8, !tbaa !4
  %21 = load i32, ptr %5, align 4, !tbaa !9
  call void @_Z14luaL_argerrorLP9lua_StateiPKc(ptr noundef %20, i32 noundef %21, ptr noundef @.str.16) #5
  unreachable

22:                                               ; No predecessors!
  br label %23

23:                                               ; preds = %22, %18
  %24 = load i32, ptr %8, align 4, !tbaa !9
  %25 = icmp slt i32 0, %24
  br i1 %25, label %26, label %27

26:                                               ; preds = %23
  br label %32

27:                                               ; preds = %23
  %28 = load ptr, ptr %4, align 8, !tbaa !4
  %29 = load i32, ptr %5, align 4, !tbaa !9
  %30 = add nsw i32 %29, 1
  call void @_Z14luaL_argerrorLP9lua_StateiPKc(ptr noundef %28, i32 noundef %30, ptr noundef @.str.17) #5
  unreachable

31:                                               ; No predecessors!
  br label %32

32:                                               ; preds = %31, %26
  %33 = load i32, ptr %7, align 4, !tbaa !9
  %34 = load i32, ptr %8, align 4, !tbaa !9
  %35 = add nsw i32 %33, %34
  %36 = icmp sgt i32 %35, 32
  br i1 %36, label %37, label %39

37:                                               ; preds = %32
  %38 = load ptr, ptr %4, align 8, !tbaa !4
  call void (ptr, ptr, ...) @_Z11luaL_errorLP9lua_StatePKcz(ptr noundef %38, ptr noundef @.str.18) #5
  unreachable

39:                                               ; preds = %32
  %40 = load i32, ptr %8, align 4, !tbaa !9
  %41 = load ptr, ptr %6, align 8, !tbaa !17
  store i32 %40, ptr %41, align 4, !tbaa !9
  %42 = load i32, ptr %7, align 4, !tbaa !9
  call void @llvm.lifetime.end.p0(i64 4, ptr %8) #4
  call void @llvm.lifetime.end.p0(i64 4, ptr %7) #4
  ret i32 %42
}

; Function Attrs: mustprogress uwtable
define internal noundef i32 @_ZL9b_replaceP9lua_State(ptr noundef %0) #0 {
  %2 = alloca ptr, align 8
  %3 = alloca i32, align 4
  %4 = alloca i32, align 4
  %5 = alloca i32, align 4
  %6 = alloca i32, align 4
  %7 = alloca i32, align 4
  store ptr %0, ptr %2, align 8, !tbaa !4
  call void @llvm.lifetime.start.p0(i64 4, ptr %3) #4
  call void @llvm.lifetime.start.p0(i64 4, ptr %4) #4
  %8 = load ptr, ptr %2, align 8, !tbaa !4
  %9 = call noundef i32 @_Z18luaL_checkunsignedP9lua_Statei(ptr noundef %8, i32 noundef 1)
  store i32 %9, ptr %4, align 4, !tbaa !9
  call void @llvm.lifetime.start.p0(i64 4, ptr %5) #4
  %10 = load ptr, ptr %2, align 8, !tbaa !4
  %11 = call noundef i32 @_Z18luaL_checkunsignedP9lua_Statei(ptr noundef %10, i32 noundef 2)
  store i32 %11, ptr %5, align 4, !tbaa !9
  call void @llvm.lifetime.start.p0(i64 4, ptr %6) #4
  %12 = load ptr, ptr %2, align 8, !tbaa !4
  %13 = call noundef i32 @_ZL9fieldargsP9lua_StateiPi(ptr noundef %12, i32 noundef 3, ptr noundef %3)
  store i32 %13, ptr %6, align 4, !tbaa !9
  call void @llvm.lifetime.start.p0(i64 4, ptr %7) #4
  %14 = load i32, ptr %3, align 4, !tbaa !9
  %15 = sub nsw i32 %14, 1
  %16 = shl i32 -2, %15
  %17 = xor i32 %16, -1
  store i32 %17, ptr %7, align 4, !tbaa !9
  %18 = load i32, ptr %7, align 4, !tbaa !9
  %19 = load i32, ptr %5, align 4, !tbaa !9
  %20 = and i32 %19, %18
  store i32 %20, ptr %5, align 4, !tbaa !9
  %21 = load i32, ptr %4, align 4, !tbaa !9
  %22 = load i32, ptr %7, align 4, !tbaa !9
  %23 = load i32, ptr %6, align 4, !tbaa !9
  %24 = shl i32 %22, %23
  %25 = xor i32 %24, -1
  %26 = and i32 %21, %25
  %27 = load i32, ptr %5, align 4, !tbaa !9
  %28 = load i32, ptr %6, align 4, !tbaa !9
  %29 = shl i32 %27, %28
  %30 = or i32 %26, %29
  store i32 %30, ptr %4, align 4, !tbaa !9
  %31 = load ptr, ptr %2, align 8, !tbaa !4
  %32 = load i32, ptr %4, align 4, !tbaa !9
  call void @_Z16lua_pushunsignedP9lua_Statej(ptr noundef %31, i32 noundef %32)
  call void @llvm.lifetime.end.p0(i64 4, ptr %7) #4
  call void @llvm.lifetime.end.p0(i64 4, ptr %6) #4
  call void @llvm.lifetime.end.p0(i64 4, ptr %5) #4
  call void @llvm.lifetime.end.p0(i64 4, ptr %4) #4
  call void @llvm.lifetime.end.p0(i64 4, ptr %3) #4
  ret i32 1
}