; Function Attrs: mustprogress uwtable
define internal noundef i32 @_ZL9b_replaceP9lua_State(ptr noundef %0) #0 {
  %2 = tail call noundef i32 @_Z18luaL_checkunsignedP9lua_Statei(ptr noundef %0, i32 noundef 1)
  %3 = tail call noundef i32 @_Z18luaL_checkunsignedP9lua_Statei(ptr noundef %0, i32 noundef 2)
  %4 = tail call noundef i32 @_Z17luaL_checkintegerP9lua_Statei(ptr noundef %0, i32 noundef 3)
  %5 = tail call noundef i32 @_Z15luaL_optintegerP9lua_Stateii(ptr noundef %0, i32 noundef 4, i32 noundef 1)
  %6 = icmp sgt i32 %4, -1
  br i1 %6, label %8, label %7

7:                                                ; preds = %1
  tail call void @_Z14luaL_argerrorLP9lua_StateiPKc(ptr noundef %0, i32 noundef 3, ptr noundef nonnull @.str.16) #4
  unreachable

8:                                                ; preds = %1
  %9 = icmp sgt i32 %5, 0
  br i1 %9, label %11, label %10

10:                                               ; preds = %8
  tail call void @_Z14luaL_argerrorLP9lua_StateiPKc(ptr noundef %0, i32 noundef 4, ptr noundef nonnull @.str.17) #4
  unreachable

11:                                               ; preds = %8
  %12 = add nuw nsw i32 %5, %4
  %13 = icmp samesign ugt i32 %12, 32
  br i1 %13, label %14, label %_ZL9fieldargsP9lua_StateiPi.exit

14:                                               ; preds = %11
  tail call void (ptr, ptr, ...) @_Z11luaL_errorLP9lua_StatePKcz(ptr noundef %0, ptr noundef nonnull @.str.18) #4
  unreachable

_ZL9fieldargsP9lua_StateiPi.exit:                 ; preds = %11
  %15 = add nsw i32 %5, -1
  %16 = shl i32 -2, %15
  %17 = xor i32 %16, -1
  %18 = and i32 %3, %17
  %19 = shl i32 %17, %4
  %20 = xor i32 %19, -1
  %21 = and i32 %2, %20
  %22 = shl i32 %18, %4
  %23 = or i32 %21, %22
  tail call void @_Z16lua_pushunsignedP9lua_Statej(ptr noundef %0, i32 noundef %23)
  ret i32 1
}